target datalayout = "e-m:e-p270:32:32-p271:32:32-p272:64:64-i64:64-i128:128-f80:128-n8:16:32:64-S128"
target triple = "x86_64-pc-linux-gnu"

%struct.AppendState = type { %struct.PlanState, ptr, i32, i32, i8, ptr, i32, ptr, ptr, i32, i8, i32, ptr, ptr, i32, ptr, i64, ptr, i8, ptr, ptr, ptr }
%struct.PlanState = type { i32, ptr, ptr, ptr, ptr, ptr, ptr, ptr, ptr, ptr, ptr, ptr, ptr, ptr, ptr, ptr, ptr, ptr, i8, ptr, ptr, ptr, ptr, ptr, i8, i8, i8, i8, i8, i8, i8, i8 }
%struct.ParallelContext = type { %struct.dlist_node, i32, i32, i32, i32, ptr, ptr, ptr, %struct.shm_toc_estimator, ptr, ptr, ptr, ptr, i32, ptr }
%struct.dlist_node = type { ptr, ptr }
%struct.shm_toc_estimator = type { i64, i64 }

; Function Attrs: nounwind uwtable
define dso_local void @ExecAppendEstimate(ptr noundef %0, ptr noundef %1) #0 {
  %3 = alloca ptr, align 8
  %4 = alloca ptr, align 8
  store ptr %0, ptr %3, align 8
  store ptr %1, ptr %4, align 8
  %5 = load ptr, ptr %3, align 8
  %6 = getelementptr inbounds nuw %struct.AppendState, ptr %5, i32 0, i32 2
  %7 = load i32, ptr %6, align 8
  %8 = sext i32 %7 to i64
  %9 = mul i64 1, %8
  %10 = call i64 @add_size(i64 noundef 20, i64 noundef %9)
  %11 = load ptr, ptr %3, align 8
  %12 = getelementptr inbounds nuw %struct.AppendState, ptr %11, i32 0, i32 16
  store i64 %10, ptr %12, align 8
  %13 = load ptr, ptr %4, align 8
  %14 = getelementptr inbounds nuw %struct.ParallelContext, ptr %13, i32 0, i32 8
  %15 = getelementptr inbounds nuw %struct.shm_toc_estimator, ptr %14, i32 0, i32 0
  %16 = load i64, ptr %15, align 8
  %17 = load ptr, ptr %3, align 8
  %18 = getelementptr inbounds nuw %struct.AppendState, ptr %17, i32 0, i32 16
  %19 = load i64, ptr %18, align 8
  %20 = add i64 %19, 31
  %21 = and i64 %20, -32
  %22 = call i64 @add_size(i64 noundef %16, i64 noundef %21)
  %23 = load ptr, ptr %4, align 8
  %24 = getelementptr inbounds nuw %struct.ParallelContext, ptr %23, i32 0, i32 8
  %25 = getelementptr inbounds nuw %struct.shm_toc_estimator, ptr %24, i32 0, i32 0
  store i64 %22, ptr %25, align 8
  %26 = load ptr, ptr %4, align 8
  %27 = getelementptr inbounds nuw %struct.ParallelContext, ptr %26, i32 0, i32 8
  %28 = getelementptr inbounds nuw %struct.shm_toc_estimator, ptr %27, i32 0, i32 1
  %29 = load i64, ptr %28, align 8
  %30 = call i64 @add_size(i64 noundef %29, i64 noundef 1)
  %31 = load ptr, ptr %4, align 8
  %32 = getelementptr inbounds nuw %struct.ParallelContext, ptr %31, i32 0, i32 8
  %33 = getelementptr inbounds nuw %struct.shm_toc_estimator, ptr %32, i32 0, i32 1
  store i64 %30, ptr %33, align 8
  ret void
}