; Function Attrs: nounwind uwtable
define dso_local void @ExecAppendEstimate(ptr noundef captures(none) initializes((304, 312)) %0, ptr noundef captures(none) %1) local_unnamed_addr #0 {
  %3 = getelementptr inbounds nuw i8, ptr %0, i64 208
  %4 = load i32, ptr %3, align 8
  %5 = sext i32 %4 to i64
  %6 = tail call i64 @add_size(i64 noundef 20, i64 noundef %5) #6
  %7 = getelementptr inbounds nuw i8, ptr %0, i64 304
  store i64 %6, ptr %7, align 8
  %8 = getelementptr inbounds nuw i8, ptr %1, i64 56
  %9 = load i64, ptr %8, align 8
  %10 = add i64 %6, 31
  %11 = and i64 %10, -32
  %12 = tail call i64 @add_size(i64 noundef %9, i64 noundef %11) #6
  store i64 %12, ptr %8, align 8
  %13 = getelementptr inbounds nuw i8, ptr %1, i64 64
  %14 = load i64, ptr %13, align 8
  %15 = tail call i64 @add_size(i64 noundef %14, i64 noundef 1) #6
  store i64 %15, ptr %13, align 8
  ret void
}